; Function Attrs: mustprogress uwtable
define void @_ZN18FilterSamplePlugin11applyFilterB5cxx11EPK7QActionRK17RichParameterListR12MeshDocumentRjPFbiPKcE(ptr dead_on_unwind noalias writable sret(%"class.std::map.150") align 8 %0, ptr noundef nonnull align 8 dereferenceable(80) %1, ptr noundef %2, ptr noundef nonnull align 8 dereferenceable(24) %3, ptr noundef nonnull align 8 dereferenceable(192) %4, ptr nocapture nonnull readnone align 4 %5, ptr nocapture noundef readonly %6) unnamed_addr #9 align 2 personality ptr @__gxx_personality_v0 {
  %8 = alloca %class.QString, align 8
  %9 = alloca %class.QString, align 8
  %10 = alloca %class.QString, align 8
  %11 = getelementptr inbounds i8, ptr %1, i64 16
  %12 = load ptr, ptr %11, align 8
  %13 = getelementptr inbounds i8, ptr %12, i64 144
  %14 = load ptr, ptr %13, align 8
  %15 = tail call noundef i32 %14(ptr noundef nonnull align 8 dereferenceable(64) %11, ptr noundef %2)
  %cond = icmp eq i32 %15, 0
  br i1 %cond, label %16, label %50

16:                                               ; preds = %7
  %17 = tail call noundef ptr @_ZN7QString16fromAscii_helperEPKci(ptr noundef nonnull @.str.18, i32 noundef 10)
  store ptr %17, ptr %8, align 8
  %18 = invoke noundef i32 @_ZNK17RichParameterList6getIntERK7QString(ptr noundef nonnull align 8 dereferenceable(24) %3, ptr noundef nonnull align 8 dereferenceable(8) %8)
          to label %19 unwind label %42

19:                                               ; preds = %16
  %20 = invoke noundef ptr @_ZN7QString16fromAscii_helperEPKci(ptr noundef nonnull @.str.12, i32 noundef 13)
          to label %21 unwind label %42

21:                                               ; preds = %19
  store ptr %20, ptr %9, align 8
  %22 = invoke noundef zeroext i1 @_ZNK17RichParameterList7getBoolERK7QString(ptr noundef nonnull align 8 dereferenceable(24) %3, ptr noundef nonnull align 8 dereferenceable(8) %9)
          to label %23 unwind label %44

23:                                               ; preds = %21
  %24 = invoke noundef ptr @_ZN7QString16fromAscii_helperEPKci(ptr noundef nonnull @.str.15, i32 noundef 12)
          to label %25 unwind label %44

25:                                               ; preds = %23
  store ptr %24, ptr %10, align 8
  %26 = invoke noundef float @_ZNK17RichParameterList10getAbsPercERK7QString(ptr noundef nonnull align 8 dereferenceable(24) %3, ptr noundef nonnull align 8 dereferenceable(8) %10)
          to label %27 unwind label %46

27:                                               ; preds = %25
  %28 = invoke noundef zeroext i1 @_ZN18FilterSamplePlugin18vertexDisplacementER12MeshDocumentPFbiPKcEibf(ptr noundef nonnull align 8 dereferenceable(80) %1, ptr noundef nonnull align 8 dereferenceable(192) %4, ptr noundef %6, i32 noundef %18, i1 noundef zeroext %22, float noundef %26)
          to label %29 unwind label %46

29:                                               ; preds = %27
  %30 = load ptr, ptr %10, align 8
  %31 = load atomic i32, ptr %30 monotonic, align 4
  switch i32 %31, label %_ZN9QtPrivate8RefCount5derefEv.exit.i [
    i32 0, label %_ZN9QtPrivate8RefCount5derefEv.exit.thread2.i
    i32 -1, label %_ZN7QStringD2Ev.exit
  ]

_ZN9QtPrivate8RefCount5derefEv.exit.i:            ; preds = %29
  %32 = atomicrmw sub ptr %30, i32 1 seq_cst, align 4
  %.not.i = icmp eq i32 %32, 1
  br i1 %.not.i, label %_ZN9QtPrivate8RefCount5derefEv.exit._ZN9QtPrivate8RefCount5derefEv.exit.thread2_crit_edge.i, label %_ZN7QStringD2Ev.exit

_ZN9QtPrivate8RefCount5derefEv.exit._ZN9QtPrivate8RefCount5derefEv.exit.thread2_crit_edge.i: ; preds = %_ZN9QtPrivate8RefCount5derefEv.exit.i
  %.pre.i = load ptr, ptr %10, align 8
  br label %_ZN9QtPrivate8RefCount5derefEv.exit.thread2.i

_ZN9QtPrivate8RefCount5derefEv.exit.thread2.i:    ; preds = %_ZN9QtPrivate8RefCount5derefEv.exit._ZN9QtPrivate8RefCount5derefEv.exit.thread2_crit_edge.i, %29
  %33 = phi ptr [ %.pre.i, %_ZN9QtPrivate8RefCount5derefEv.exit._ZN9QtPrivate8RefCount5derefEv.exit.thread2_crit_edge.i ], [ %30, %29 ]
  call void @_ZN10QArrayData10deallocateEPS_mm(ptr noundef %33, i64 noundef 2, i64 noundef 8) #23
  br label %_ZN7QStringD2Ev.exit

_ZN7QStringD2Ev.exit:                             ; preds = %29, %_ZN9QtPrivate8RefCount5derefEv.exit.i, %_ZN9QtPrivate8RefCount5derefEv.exit.thread2.i
  %34 = load ptr, ptr %9, align 8
  %35 = load atomic i32, ptr %34 monotonic, align 4
  switch i32 %35, label %_ZN9QtPrivate8RefCount5derefEv.exit.i15 [
    i32 0, label %_ZN9QtPrivate8RefCount5derefEv.exit.thread2.i14
    i32 -1, label %_ZN7QStringD2Ev.exit19
  ]

_ZN9QtPrivate8RefCount5derefEv.exit.i15:          ; preds = %_ZN7QStringD2Ev.exit
  %36 = atomicrmw sub ptr %34, i32 1 seq_cst, align 4
  %.not.i16 = icmp eq i32 %36, 1
  br i1 %.not.i16, label %_ZN9QtPrivate8RefCount5derefEv.exit._ZN9QtPrivate8RefCount5derefEv.exit.thread2_crit_edge.i17, label %_ZN7QStringD2Ev.exit19

_ZN9QtPrivate8RefCount5derefEv.exit._ZN9QtPrivate8RefCount5derefEv.exit.thread2_crit_edge.i17: ; preds = %_ZN9QtPrivate8RefCount5derefEv.exit.i15
  %.pre.i18 = load ptr, ptr %9, align 8
  br label %_ZN9QtPrivate8RefCount5derefEv.exit.thread2.i14

_ZN9QtPrivate8RefCount5derefEv.exit.thread2.i14:  ; preds = %_ZN9QtPrivate8RefCount5derefEv.exit._ZN9QtPrivate8RefCount5derefEv.exit.thread2_crit_edge.i17, %_ZN7QStringD2Ev.exit
  %37 = phi ptr [ %.pre.i18, %_ZN9QtPrivate8RefCount5derefEv.exit._ZN9QtPrivate8RefCount5derefEv.exit.thread2_crit_edge.i17 ], [ %34, %_ZN7QStringD2Ev.exit ]
  call void @_ZN10QArrayData10deallocateEPS_mm(ptr noundef %37, i64 noundef 2, i64 noundef 8) #23
  br label %_ZN7QStringD2Ev.exit19

_ZN7QStringD2Ev.exit19:                           ; preds = %_ZN7QStringD2Ev.exit, %_ZN9QtPrivate8RefCount5derefEv.exit.i15, %_ZN9QtPrivate8RefCount5derefEv.exit.thread2.i14
  %38 = load ptr, ptr %8, align 8
  %39 = load atomic i32, ptr %38 monotonic, align 4
  switch i32 %39, label %_ZN9QtPrivate8RefCount5derefEv.exit.i21 [
    i32 0, label %_ZN9QtPrivate8RefCount5derefEv.exit.thread2.i20
    i32 -1, label %_ZN7QStringD2Ev.exit25
  ]

_ZN9QtPrivate8RefCount5derefEv.exit.i21:          ; preds = %_ZN7QStringD2Ev.exit19
  %40 = atomicrmw sub ptr %38, i32 1 seq_cst, align 4
  %.not.i22 = icmp eq i32 %40, 1
  br i1 %.not.i22, label %_ZN9QtPrivate8RefCount5derefEv.exit._ZN9QtPrivate8RefCount5derefEv.exit.thread2_crit_edge.i23, label %_ZN7QStringD2Ev.exit25

_ZN9QtPrivate8RefCount5derefEv.exit._ZN9QtPrivate8RefCount5derefEv.exit.thread2_crit_edge.i23: ; preds = %_ZN9QtPrivate8RefCount5derefEv.exit.i21
  %.pre.i24 = load ptr, ptr %8, align 8
  br label %_ZN9QtPrivate8RefCount5derefEv.exit.thread2.i20

_ZN9QtPrivate8RefCount5derefEv.exit.thread2.i20:  ; preds = %_ZN9QtPrivate8RefCount5derefEv.exit._ZN9QtPrivate8RefCount5derefEv.exit.thread2_crit_edge.i23, %_ZN7QStringD2Ev.exit19
  %41 = phi ptr [ %.pre.i24, %_ZN9QtPrivate8RefCount5derefEv.exit._ZN9QtPrivate8RefCount5derefEv.exit.thread2_crit_edge.i23 ], [ %38, %_ZN7QStringD2Ev.exit19 ]
  call void @_ZN10QArrayData10deallocateEPS_mm(ptr noundef %41, i64 noundef 2, i64 noundef 8) #23
  br label %_ZN7QStringD2Ev.exit25

42:                                               ; preds = %19, %16
  %43 = landingpad { ptr, i32 }
          cleanup
  br label %49

44:                                               ; preds = %23, %21
  %45 = landingpad { ptr, i32 }
          cleanup
  br label %48

46:                                               ; preds = %27, %25
  %47 = landingpad { ptr, i32 }
          cleanup
  call void @_ZN7QStringD2Ev(ptr noundef nonnull align 8 dereferenceable(8) %10) #23
  br label %48

48:                                               ; preds = %46, %44
  %.pn = phi { ptr, i32 } [ %47, %46 ], [ %45, %44 ]
  call void @_ZN7QStringD2Ev(ptr noundef nonnull align 8 dereferenceable(8) %9) #23
  br label %49

49:                                               ; preds = %48, %42
  %.pn.pn = phi { ptr, i32 } [ %.pn, %48 ], [ %43, %42 ]
  call void @_ZN7QStringD2Ev(ptr noundef nonnull align 8 dereferenceable(8) %8) #23
  resume { ptr, i32 } %.pn.pn

50:                                               ; preds = %7
  tail call void @_ZN12FilterPlugin17wrongActionCalledEPK7QAction(ptr noundef %2)
  br label %_ZN7QStringD2Ev.exit25

_ZN7QStringD2Ev.exit25:                           ; preds = %_ZN9QtPrivate8RefCount5derefEv.exit.thread2.i20, %_ZN9QtPrivate8RefCount5derefEv.exit.i21, %_ZN7QStringD2Ev.exit19, %50
  %51 = getelementptr inbounds i8, ptr %0, i64 8
  %52 = getelementptr inbounds i8, ptr %0, i64 24
  call void @llvm.memset.p0.i64(ptr noundef nonnull align 8 dereferenceable(24) %0, i8 0, i64 24, i1 false)
  store ptr %51, ptr %52, align 8
  %53 = getelementptr inbounds i8, ptr %0, i64 32
  store ptr %51, ptr %53, align 8
  %54 = getelementptr inbounds i8, ptr %0, i64 40
  store i64 0, ptr %54, align 8
  ret void
}